target datalayout = "e-m:e-p270:32:32-p271:32:32-p272:64:64-i64:64-i128:128-f80:128-n8:16:32:64-S128"
target triple = "x86_64-pc-linux-gnu"

@.str.42 = private unnamed_addr constant [31 x i8] c"[Error]: internal stack error\0A\00", align 1
@.str.43 = private unnamed_addr constant [32 x i8] c"[Error]: command name too long\0A\00", align 1
@.str.44 = private unnamed_addr constant [15 x i8] c"[Success]: %s\0A\00", align 1
@.str.45 = private unnamed_addr constant [15 x i8] c"[Failure]: %s\0A\00", align 1

; Function Attrs: inlinehint nounwind uwtable
define internal ptr @ossl_check_const_OPENSSL_STRING_sk_type(ptr noundef %0) #3 {
  %2 = alloca ptr, align 8
  store ptr %0, ptr %2, align 8, !tbaa !13
  %3 = load ptr, ptr %2, align 8, !tbaa !13
  ret ptr %3
}

; Function Attrs: nounwind uwtable
define internal void @util_do_cmds(ptr noundef %0, ptr noundef %1, ptr noundef %2, ptr noundef %3) #0 {
  %5 = alloca ptr, align 8
  %6 = alloca ptr, align 8
  %7 = alloca ptr, align 8
  %8 = alloca ptr, align 8
  %9 = alloca i32, align 4
  %10 = alloca i32, align 4
  %11 = alloca i32, align 4
  %12 = alloca i32, align 4
  %13 = alloca [256 x i8], align 16
  %14 = alloca ptr, align 8
  %15 = alloca ptr, align 8
  store ptr %0, ptr %5, align 8, !tbaa !24
  store ptr %1, ptr %6, align 8, !tbaa !13
  store ptr %2, ptr %7, align 8, !tbaa !17
  store ptr %3, ptr %8, align 8, !tbaa !15
  call void @llvm.lifetime.start.p0(i64 4, ptr %9) #7
  call void @llvm.lifetime.start.p0(i64 4, ptr %10) #7
  call void @llvm.lifetime.start.p0(i64 4, ptr %11) #7
  %16 = load ptr, ptr %6, align 8, !tbaa !13
  %17 = call ptr @ossl_check_const_OPENSSL_STRING_sk_type(ptr noundef %16)
  %18 = call i32 @OPENSSL_sk_num(ptr noundef %17)
  store i32 %18, ptr %11, align 4, !tbaa !4
  %19 = load i32, ptr %11, align 4, !tbaa !4
  %20 = icmp slt i32 %19, 0
  br i1 %20, label %21, label %24

21:                                               ; preds = %4
  %22 = load ptr, ptr %7, align 8, !tbaa !17
  %23 = call i32 (ptr, ptr, ...) @BIO_printf(ptr noundef %22, ptr noundef @.str.42)
  store i32 1, ptr %12, align 4
  br label %100

24:                                               ; preds = %4
  store i32 0, ptr %9, align 4, !tbaa !4
  br label %25

25:                                               ; preds = %96, %24
  %26 = load i32, ptr %9, align 4, !tbaa !4
  %27 = load i32, ptr %11, align 4, !tbaa !4
  %28 = icmp slt i32 %26, %27
  br i1 %28, label %29, label %99

29:                                               ; preds = %25
  call void @llvm.lifetime.start.p0(i64 256, ptr %13) #7
  call void @llvm.lifetime.start.p0(i64 8, ptr %14) #7
  call void @llvm.lifetime.start.p0(i64 8, ptr %15) #7
  %30 = load ptr, ptr %6, align 8, !tbaa !13
  %31 = call ptr @ossl_check_const_OPENSSL_STRING_sk_type(ptr noundef %30)
  %32 = load i32, ptr %9, align 4, !tbaa !4
  %33 = call ptr @OPENSSL_sk_value(ptr noundef %31, i32 noundef %32)
  store ptr %33, ptr %14, align 8, !tbaa !15
  store i32 1, ptr %10, align 4, !tbaa !4
  %34 = load ptr, ptr %14, align 8, !tbaa !15
  %35 = call ptr @strchr(ptr noundef %34, i32 noundef 58) #8
  store ptr %35, ptr %15, align 8, !tbaa !15
  %36 = icmp eq ptr %35, null
  br i1 %36, label %37, label %44

37:                                               ; preds = %29
  %38 = load ptr, ptr %5, align 8, !tbaa !24
  %39 = load ptr, ptr %14, align 8, !tbaa !15
  %40 = call i32 @ENGINE_ctrl_cmd_string(ptr noundef %38, ptr noundef %39, ptr noundef null, i32 noundef 0)
  %41 = icmp ne i32 %40, 0
  br i1 %41, label %43, label %42

42:                                               ; preds = %37
  store i32 0, ptr %10, align 4, !tbaa !4
  br label %43

43:                                               ; preds = %42, %37
  br label %80

44:                                               ; preds = %29
  %45 = load ptr, ptr %15, align 8, !tbaa !15
  %46 = load ptr, ptr %14, align 8, !tbaa !15
  %47 = ptrtoint ptr %45 to i64
  %48 = ptrtoint ptr %46 to i64
  %49 = sub i64 %47, %48
  %50 = trunc i64 %49 to i32
  %51 = icmp sgt i32 %50, 254
  br i1 %51, label %52, label %55

52:                                               ; preds = %44
  %53 = load ptr, ptr %7, align 8, !tbaa !17
  %54 = call i32 (ptr, ptr, ...) @BIO_printf(ptr noundef %53, ptr noundef @.str.43)
  store i32 1, ptr %12, align 4
  br label %93

55:                                               ; preds = %44
  %56 = getelementptr inbounds [256 x i8], ptr %13, i64 0, i64 0
  %57 = load ptr, ptr %14, align 8, !tbaa !15
  %58 = load ptr, ptr %15, align 8, !tbaa !15
  %59 = load ptr, ptr %14, align 8, !tbaa !15
  %60 = ptrtoint ptr %58 to i64
  %61 = ptrtoint ptr %59 to i64
  %62 = sub i64 %60, %61
  %63 = trunc i64 %62 to i32
  %64 = sext i32 %63 to i64
  call void @llvm.memcpy.p0.p0.i64(ptr align 16 %56, ptr align 1 %57, i64 %64, i1 false)
  %65 = load ptr, ptr %15, align 8, !tbaa !15
  %66 = load ptr, ptr %14, align 8, !tbaa !15
  %67 = ptrtoint ptr %65 to i64
  %68 = ptrtoint ptr %66 to i64
  %69 = sub i64 %67, %68
  %70 = getelementptr inbounds [256 x i8], ptr %13, i64 0, i64 %69
  store i8 0, ptr %70, align 1, !tbaa !19
  %71 = load ptr, ptr %15, align 8, !tbaa !15
  %72 = getelementptr inbounds nuw i8, ptr %71, i32 1
  store ptr %72, ptr %15, align 8, !tbaa !15
  %73 = load ptr, ptr %5, align 8, !tbaa !24
  %74 = getelementptr inbounds [256 x i8], ptr %13, i64 0, i64 0
  %75 = load ptr, ptr %15, align 8, !tbaa !15
  %76 = call i32 @ENGINE_ctrl_cmd_string(ptr noundef %73, ptr noundef %74, ptr noundef %75, i32 noundef 0)
  %77 = icmp ne i32 %76, 0
  br i1 %77, label %79, label %78

78:                                               ; preds = %55
  store i32 0, ptr %10, align 4, !tbaa !4
  br label %79

79:                                               ; preds = %78, %55
  br label %80

80:                                               ; preds = %79, %43
  %81 = load i32, ptr %10, align 4, !tbaa !4
  %82 = icmp ne i32 %81, 0
  br i1 %82, label %83, label %87

83:                                               ; preds = %80
  %84 = load ptr, ptr %7, align 8, !tbaa !17
  %85 = load ptr, ptr %14, align 8, !tbaa !15
  %86 = call i32 (ptr, ptr, ...) @BIO_printf(ptr noundef %84, ptr noundef @.str.44, ptr noundef %85)
  br label %92

87:                                               ; preds = %80
  %88 = load ptr, ptr %7, align 8, !tbaa !17
  %89 = load ptr, ptr %14, align 8, !tbaa !15
  %90 = call i32 (ptr, ptr, ...) @BIO_printf(ptr noundef %88, ptr noundef @.str.45, ptr noundef %89)
  %91 = load ptr, ptr %7, align 8, !tbaa !17
  call void @ERR_print_errors(ptr noundef %91)
  br label %92

92:                                               ; preds = %87, %83
  store i32 0, ptr %12, align 4
  br label %93

93:                                               ; preds = %92, %52
  call void @llvm.lifetime.end.p0(i64 8, ptr %15) #7
  call void @llvm.lifetime.end.p0(i64 8, ptr %14) #7
  call void @llvm.lifetime.end.p0(i64 256, ptr %13) #7
  %94 = load i32, ptr %12, align 4
  switch i32 %94, label %100 [
    i32 0, label %95
  ]

95:                                               ; preds = %93
  br label %96

96:                                               ; preds = %95
  %97 = load i32, ptr %9, align 4, !tbaa !4
  %98 = add nsw i32 %97, 1
  store i32 %98, ptr %9, align 4, !tbaa !4
  br label %25, !llvm.loop !41

99:                                               ; preds = %25
  store i32 0, ptr %12, align 4
  br label %100

100:                                              ; preds = %99, %93, %21
  call void @llvm.lifetime.end.p0(i64 4, ptr %11) #7
  call void @llvm.lifetime.end.p0(i64 4, ptr %10) #7
  call void @llvm.lifetime.end.p0(i64 4, ptr %9) #7
  %101 = load i32, ptr %12, align 4
  switch i32 %101, label %103 [
    i32 0, label %102
    i32 1, label %102
  ]

102:                                              ; preds = %100, %100
  ret void

103:                                              ; preds = %100
  unreachable
}