; Function Attrs: nounwind uwtable
define internal fastcc void @util_do_cmds(ptr noundef nonnull %0, ptr noundef nonnull %1, ptr noundef %2) unnamed_addr #0 {
  %4 = alloca [256 x i8], align 16
  %5 = tail call i32 @OPENSSL_sk_num(ptr noundef nonnull %1) #7
  %6 = icmp slt i32 %5, 0
  br i1 %6, label %7, label %.preheader

.preheader:                                       ; preds = %3
  %.not2 = icmp eq i32 %5, 0
  br i1 %.not2, label %.loopexit, label %.lr.ph

7:                                                ; preds = %3
  %8 = tail call i32 (ptr, ptr, ...) @BIO_printf(ptr noundef %2, ptr noundef nonnull @.str.42) #7
  br label %.loopexit

.lr.ph:                                           ; preds = %.preheader, %30
  %.01 = phi i32 [ %31, %30 ], [ 0, %.preheader ]
  call void @llvm.lifetime.start.p0(i64 256, ptr nonnull %4) #7
  %9 = call ptr @OPENSSL_sk_value(ptr noundef nonnull %1, i32 noundef %.01) #7
  %10 = call ptr @strchr(ptr noundef nonnull dereferenceable(1) %9, i32 noundef 58) #8
  %11 = icmp eq ptr %10, null
  br i1 %11, label %12, label %14

12:                                               ; preds = %.lr.ph
  %13 = call i32 @ENGINE_ctrl_cmd_string(ptr noundef nonnull %0, ptr noundef nonnull %9, ptr noundef null, i32 noundef 0) #7
  %.not33 = icmp eq i32 %13, 0
  br i1 %.not33, label %28, label %26

14:                                               ; preds = %.lr.ph
  %15 = ptrtoint ptr %10 to i64
  %16 = ptrtoint ptr %9 to i64
  %17 = sub i64 %15, %16
  %18 = trunc i64 %17 to i32
  %19 = icmp sgt i32 %18, 254
  br i1 %19, label %.critedge, label %21

.critedge:                                        ; preds = %14
  %20 = call i32 (ptr, ptr, ...) @BIO_printf(ptr noundef %2, ptr noundef nonnull @.str.43) #7
  call void @llvm.lifetime.end.p0(i64 256, ptr nonnull %4) #7
  br label %.loopexit

21:                                               ; preds = %14
  %sext = shl i64 %17, 32
  %22 = ashr exact i64 %sext, 32
  call void @llvm.memcpy.p0.p0.i64(ptr nonnull align 16 %4, ptr nonnull align 1 %9, i64 %22, i1 false)
  %23 = getelementptr inbounds [256 x i8], ptr %4, i64 0, i64 %17
  store i8 0, ptr %23, align 1, !tbaa !9
  %24 = getelementptr inbounds nuw i8, ptr %10, i64 1
  %25 = call i32 @ENGINE_ctrl_cmd_string(ptr noundef nonnull %0, ptr noundef nonnull %4, ptr noundef nonnull %24, i32 noundef 0) #7
  %.not = icmp eq i32 %25, 0
  br i1 %.not, label %28, label %26

26:                                               ; preds = %12, %21
  %27 = call i32 (ptr, ptr, ...) @BIO_printf(ptr noundef %2, ptr noundef nonnull @.str.44, ptr noundef nonnull %9) #7
  br label %30

28:                                               ; preds = %12, %21
  %29 = call i32 (ptr, ptr, ...) @BIO_printf(ptr noundef %2, ptr noundef nonnull @.str.45, ptr noundef nonnull %9) #7
  call void @ERR_print_errors(ptr noundef %2) #7
  br label %30

30:                                               ; preds = %26, %28
  call void @llvm.lifetime.end.p0(i64 256, ptr nonnull %4) #7
  %31 = add nuw nsw i32 %.01, 1
  %exitcond.not = icmp eq i32 %31, %5
  br i1 %exitcond.not, label %.loopexit, label %.lr.ph, !llvm.loop !35

.loopexit:                                        ; preds = %30, %.preheader, %.critedge, %7
  ret void
}